target datalayout = "e-m:e-p270:32:32-p271:32:32-p272:64:64-i64:64-i128:128-f80:128-n8:16:32:64-S128"
target triple = "x86_64-pc-linux-gnu"

%struct.FunctionCallInfoBaseData = type { ptr, ptr, ptr, i32, i8, i16, [0 x %struct.NullableDatum] }
%struct.NullableDatum = type { i64, i8 }
%struct.SignTSVector = type { i32, i32, [0 x i8] }
%struct.anon = type { i32, [0 x i8] }
%struct.GistTsVectorOptions = type { i32, i32 }
%struct.GISTENTRY = type { i64, ptr, ptr, i16, i8 }
%struct.GistEntryVector = type { i32, [0 x %struct.GISTENTRY] }

; Function Attrs: inlinehint nounwind uwtable
define internal i64 @PointerGetDatum(ptr noundef %0) #4 {
  %2 = alloca ptr, align 8
  store ptr %0, ptr %2, align 8
  %3 = load ptr, ptr %2, align 8
  %4 = ptrtoint ptr %3 to i64
  ret i64 %4
}

; Function Attrs: nounwind uwtable
define internal i32 @unionkey(ptr noundef %0, ptr noundef %1, i32 noundef %2) #0 {
  %4 = alloca i32, align 4
  %5 = alloca ptr, align 8
  %6 = alloca ptr, align 8
  %7 = alloca i32, align 4
  %8 = alloca i32, align 4
  %9 = alloca ptr, align 8
  %10 = alloca i32, align 4
  %11 = alloca ptr, align 8
  store ptr %0, ptr %5, align 8
  store ptr %1, ptr %6, align 8
  store i32 %2, ptr %7, align 4
  call void @llvm.lifetime.start.p0(i64 4, ptr %8) #9
  %12 = load ptr, ptr %6, align 8
  %13 = getelementptr inbounds nuw %struct.SignTSVector, ptr %12, i32 0, i32 1
  %14 = load i32, ptr %13, align 4
  %15 = and i32 %14, 2
  %16 = icmp ne i32 %15, 0
  br i1 %16, label %17, label %53

17:                                               ; preds = %3
  call void @llvm.lifetime.start.p0(i64 8, ptr %9) #9
  %18 = load ptr, ptr %6, align 8
  %19 = getelementptr inbounds nuw i8, ptr %18, i64 8
  store ptr %19, ptr %9, align 8
  %20 = load ptr, ptr %6, align 8
  %21 = getelementptr inbounds nuw %struct.SignTSVector, ptr %20, i32 0, i32 1
  %22 = load i32, ptr %21, align 4
  %23 = and i32 %22, 4
  %24 = icmp ne i32 %23, 0
  br i1 %24, label %25, label %26

25:                                               ; preds = %17
  store i32 1, ptr %4, align 4
  store i32 1, ptr %10, align 4
  br label %50

26:                                               ; preds = %17
  store i32 0, ptr %8, align 4
  br label %27

27:                                               ; preds = %46, %26
  %28 = load i32, ptr %8, align 4
  %29 = load i32, ptr %7, align 4
  %30 = icmp slt i32 %28, %29
  br i1 %30, label %31, label %49

31:                                               ; preds = %27
  %32 = load ptr, ptr %9, align 8
  %33 = load i32, ptr %8, align 4
  %34 = sext i32 %33 to i64
  %35 = getelementptr inbounds i8, ptr %32, i64 %34
  %36 = load i8, ptr %35, align 1
  %37 = sext i8 %36 to i32
  %38 = load ptr, ptr %5, align 8
  %39 = load i32, ptr %8, align 4
  %40 = sext i32 %39 to i64
  %41 = getelementptr inbounds i8, ptr %38, i64 %40
  %42 = load i8, ptr %41, align 1
  %43 = sext i8 %42 to i32
  %44 = or i32 %43, %37
  %45 = trunc i32 %44 to i8
  store i8 %45, ptr %41, align 1
  br label %46

46:                                               ; preds = %31
  %47 = load i32, ptr %8, align 4
  %48 = add i32 %47, 1
  store i32 %48, ptr %8, align 4
  br label %27, !llvm.loop !15

49:                                               ; preds = %27
  store i32 0, ptr %10, align 4
  br label %50

50:                                               ; preds = %49, %25
  call void @llvm.lifetime.end.p0(i64 8, ptr %9) #9
  %51 = load i32, ptr %10, align 4
  switch i32 %51, label %100 [
    i32 0, label %52
  ]

52:                                               ; preds = %50
  br label %99

53:                                               ; preds = %3
  call void @llvm.lifetime.start.p0(i64 8, ptr %11) #9
  %54 = load ptr, ptr %6, align 8
  %55 = getelementptr inbounds nuw i8, ptr %54, i64 8
  store ptr %55, ptr %11, align 8
  store i32 0, ptr %8, align 4
  br label %56

56:                                               ; preds = %95, %53
  %57 = load i32, ptr %8, align 4
  %58 = sext i32 %57 to i64
  %59 = load ptr, ptr %6, align 8
  %60 = getelementptr inbounds nuw %struct.anon, ptr %59, i32 0, i32 0
  %61 = load i32, ptr %60, align 4
  %62 = lshr i32 %61, 2
  %63 = and i32 %62, 1073741823
  %64 = zext i32 %63 to i64
  %65 = sub i64 %64, 8
  %66 = udiv i64 %65, 4
  %67 = icmp ult i64 %58, %66
  br i1 %67, label %68, label %98

68:                                               ; preds = %56
  %69 = load ptr, ptr %11, align 8
  %70 = load i32, ptr %8, align 4
  %71 = sext i32 %70 to i64
  %72 = getelementptr inbounds i32, ptr %69, i64 %71
  %73 = load i32, ptr %72, align 4
  %74 = load i32, ptr %7, align 4
  %75 = mul i32 %74, 8
  %76 = urem i32 %73, %75
  %77 = urem i32 %76, 8
  %78 = shl i32 1, %77
  %79 = load ptr, ptr %5, align 8
  %80 = load ptr, ptr %11, align 8
  %81 = load i32, ptr %8, align 4
  %82 = sext i32 %81 to i64
  %83 = getelementptr inbounds i32, ptr %80, i64 %82
  %84 = load i32, ptr %83, align 4
  %85 = load i32, ptr %7, align 4
  %86 = mul i32 %85, 8
  %87 = urem i32 %84, %86
  %88 = udiv i32 %87, 8
  %89 = sext i32 %88 to i64
  %90 = getelementptr inbounds i8, ptr %79, i64 %89
  %91 = load i8, ptr %90, align 1
  %92 = sext i8 %91 to i32
  %93 = or i32 %92, %78
  %94 = trunc i32 %93 to i8
  store i8 %94, ptr %90, align 1
  br label %95

95:                                               ; preds = %68
  %96 = load i32, ptr %8, align 4
  %97 = add i32 %96, 1
  store i32 %97, ptr %8, align 4
  br label %56, !llvm.loop !16

98:                                               ; preds = %56
  call void @llvm.lifetime.end.p0(i64 8, ptr %11) #9
  br label %99

99:                                               ; preds = %98, %52
  store i32 0, ptr %4, align 4
  store i32 1, ptr %10, align 4
  br label %100

100:                                              ; preds = %99, %50
  call void @llvm.lifetime.end.p0(i64 4, ptr %8) #9
  %101 = load i32, ptr %4, align 4
  ret i32 %101
}

; Function Attrs: nounwind uwtable
define internal ptr @gtsvector_alloc(i32 noundef %0, i32 noundef %1, ptr noundef %2) #0 {
  %4 = alloca i32, align 4
  %5 = alloca i32, align 4
  %6 = alloca ptr, align 8
  %7 = alloca i32, align 4
  %8 = alloca ptr, align 8
  store i32 %0, ptr %4, align 4
  store i32 %1, ptr %5, align 4
  store ptr %2, ptr %6, align 8
  call void @llvm.lifetime.start.p0(i64 4, ptr %7) #9
  %9 = load i32, ptr %4, align 4
  %10 = and i32 %9, 1
  %11 = icmp ne i32 %10, 0
  br i1 %11, label %12, label %16

12:                                               ; preds = %3
  %13 = load i32, ptr %5, align 4
  %14 = sext i32 %13 to i64
  %15 = mul i64 %14, 4
  br label %26

16:                                               ; preds = %3
  %17 = load i32, ptr %4, align 4
  %18 = and i32 %17, 4
  %19 = icmp ne i32 %18, 0
  br i1 %19, label %20, label %21

20:                                               ; preds = %16
  br label %23

21:                                               ; preds = %16
  %22 = load i32, ptr %5, align 4
  br label %23

23:                                               ; preds = %21, %20
  %24 = phi i32 [ 0, %20 ], [ %22, %21 ]
  %25 = sext i32 %24 to i64
  br label %26

26:                                               ; preds = %23, %12
  %27 = phi i64 [ %15, %12 ], [ %25, %23 ]
  %28 = add i64 8, %27
  %29 = trunc i64 %28 to i32
  store i32 %29, ptr %7, align 4
  call void @llvm.lifetime.start.p0(i64 8, ptr %8) #9
  %30 = load i32, ptr %7, align 4
  %31 = sext i32 %30 to i64
  %32 = call ptr @palloc(i64 noundef %31)
  store ptr %32, ptr %8, align 8
  %33 = load i32, ptr %7, align 4
  %34 = shl i32 %33, 2
  %35 = load ptr, ptr %8, align 8
  %36 = getelementptr inbounds nuw %struct.anon, ptr %35, i32 0, i32 0
  store i32 %34, ptr %36, align 4
  %37 = load i32, ptr %4, align 4
  %38 = load ptr, ptr %8, align 8
  %39 = getelementptr inbounds nuw %struct.SignTSVector, ptr %38, i32 0, i32 1
  store i32 %37, ptr %39, align 4
  %40 = load i32, ptr %4, align 4
  %41 = and i32 %40, 6
  %42 = icmp eq i32 %41, 2
  br i1 %42, label %43, label %52

43:                                               ; preds = %26
  %44 = load ptr, ptr %6, align 8
  %45 = icmp ne ptr %44, null
  br i1 %45, label %46, label %52

46:                                               ; preds = %43
  %47 = load ptr, ptr %8, align 8
  %48 = getelementptr inbounds nuw i8, ptr %47, i64 8
  %49 = load ptr, ptr %6, align 8
  %50 = load i32, ptr %5, align 4
  %51 = sext i32 %50 to i64
  call void @llvm.memcpy.p0.p0.i64(ptr align 1 %48, ptr align 1 %49, i64 %51, i1 false)
  br label %52

52:                                               ; preds = %46, %43, %26
  %53 = load ptr, ptr %8, align 8
  call void @llvm.lifetime.end.p0(i64 8, ptr %8) #9
  call void @llvm.lifetime.end.p0(i64 4, ptr %7) #9
  ret ptr %53
}

; Function Attrs: inlinehint nounwind uwtable
define internal ptr @DatumGetPointer(i64 noundef %0) #4 {
  %2 = alloca i64, align 8
  store i64 %0, ptr %2, align 8
  %3 = load i64, ptr %2, align 8
  %4 = inttoptr i64 %3 to ptr
  ret ptr %4
}

; Function Attrs: nounwind uwtable
define dso_local i64 @gtsvector_union(ptr noundef %0) #0 {
  %2 = alloca ptr, align 8
  %3 = alloca ptr, align 8
  %4 = alloca ptr, align 8
  %5 = alloca i32, align 4
  %6 = alloca ptr, align 8
  %7 = alloca ptr, align 8
  %8 = alloca i32, align 4
  store ptr %0, ptr %2, align 8
  call void @llvm.lifetime.start.p0(i64 8, ptr %3) #9
  %9 = load ptr, ptr %2, align 8
  %10 = getelementptr inbounds nuw %struct.FunctionCallInfoBaseData, ptr %9, i32 0, i32 6
  %11 = getelementptr inbounds [0 x %struct.NullableDatum], ptr %10, i64 0, i64 0
  %12 = getelementptr inbounds nuw %struct.NullableDatum, ptr %11, i32 0, i32 0
  %13 = load i64, ptr %12, align 8
  %14 = call ptr @DatumGetPointer(i64 noundef %13)
  store ptr %14, ptr %3, align 8
  call void @llvm.lifetime.start.p0(i64 8, ptr %4) #9
  %15 = load ptr, ptr %2, align 8
  %16 = getelementptr inbounds nuw %struct.FunctionCallInfoBaseData, ptr %15, i32 0, i32 6
  %17 = getelementptr inbounds [0 x %struct.NullableDatum], ptr %16, i64 0, i64 1
  %18 = getelementptr inbounds nuw %struct.NullableDatum, ptr %17, i32 0, i32 0
  %19 = load i64, ptr %18, align 8
  %20 = call ptr @DatumGetPointer(i64 noundef %19)
  store ptr %20, ptr %4, align 8
  call void @llvm.lifetime.start.p0(i64 4, ptr %5) #9
  %21 = load ptr, ptr %2, align 8
  %22 = getelementptr inbounds nuw %struct.FunctionCallInfoBaseData, ptr %21, i32 0, i32 0
  %23 = load ptr, ptr %22, align 8
  %24 = call zeroext i1 @has_fn_opclass_options(ptr noundef %23)
  br i1 %24, label %25, label %32

25:                                               ; preds = %1
  %26 = load ptr, ptr %2, align 8
  %27 = getelementptr inbounds nuw %struct.FunctionCallInfoBaseData, ptr %26, i32 0, i32 0
  %28 = load ptr, ptr %27, align 8
  %29 = call ptr @get_fn_opclass_options(ptr noundef %28)
  %30 = getelementptr inbounds nuw %struct.GistTsVectorOptions, ptr %29, i32 0, i32 1
  %31 = load i32, ptr %30, align 4
  br label %33

32:                                               ; preds = %1
  br label %33

33:                                               ; preds = %32, %25
  %34 = phi i32 [ %31, %25 ], [ 124, %32 ]
  store i32 %34, ptr %5, align 4
  call void @llvm.lifetime.start.p0(i64 8, ptr %6) #9
  %35 = load i32, ptr %5, align 4
  %36 = call ptr @gtsvector_alloc(i32 noundef 2, i32 noundef %35, ptr noundef null)
  store ptr %36, ptr %6, align 8
  call void @llvm.lifetime.start.p0(i64 8, ptr %7) #9
  %37 = load ptr, ptr %6, align 8
  %38 = getelementptr inbounds nuw i8, ptr %37, i64 8
  store ptr %38, ptr %7, align 8
  call void @llvm.lifetime.start.p0(i64 4, ptr %8) #9
  %39 = load ptr, ptr %7, align 8
  %40 = load i32, ptr %5, align 4
  %41 = sext i32 %40 to i64
  call void @llvm.memset.p0.i64(ptr align 1 %39, i8 0, i64 %41, i1 false)
  store i32 0, ptr %8, align 4
  br label %42

42:                                               ; preds = %95, %33
  %43 = load i32, ptr %8, align 4
  %44 = load ptr, ptr %3, align 8
  %45 = getelementptr inbounds nuw %struct.GistEntryVector, ptr %44, i32 0, i32 0
  %46 = load i32, ptr %45, align 8
  %47 = icmp slt i32 %43, %46
  br i1 %47, label %48, label %98

48:                                               ; preds = %42
  %49 = load ptr, ptr %7, align 8
  %50 = load ptr, ptr %3, align 8
  %51 = getelementptr inbounds nuw %struct.GistEntryVector, ptr %50, i32 0, i32 1
  %52 = load i32, ptr %8, align 4
  %53 = sext i32 %52 to i64
  %54 = getelementptr inbounds [0 x %struct.GISTENTRY], ptr %51, i64 0, i64 %53
  %55 = getelementptr inbounds nuw %struct.GISTENTRY, ptr %54, i32 0, i32 0
  %56 = load i64, ptr %55, align 8
  %57 = call ptr @DatumGetPointer(i64 noundef %56)
  %58 = load i32, ptr %5, align 4
  %59 = call i32 @unionkey(ptr noundef %49, ptr noundef %57, i32 noundef %58)
  %60 = icmp ne i32 %59, 0
  br i1 %60, label %61, label %94

61:                                               ; preds = %48
  %62 = load ptr, ptr %6, align 8
  %63 = getelementptr inbounds nuw %struct.SignTSVector, ptr %62, i32 0, i32 1
  %64 = load i32, ptr %63, align 4
  %65 = or i32 %64, 4
  store i32 %65, ptr %63, align 4
  %66 = load ptr, ptr %6, align 8
  %67 = getelementptr inbounds nuw %struct.SignTSVector, ptr %66, i32 0, i32 1
  %68 = load i32, ptr %67, align 4
  %69 = and i32 %68, 1
  %70 = icmp ne i32 %69, 0
  br i1 %70, label %71, label %75

71:                                               ; preds = %61
  %72 = load i32, ptr %5, align 4
  %73 = sext i32 %72 to i64
  %74 = mul i64 %73, 4
  br label %87

75:                                               ; preds = %61
  %76 = load ptr, ptr %6, align 8
  %77 = getelementptr inbounds nuw %struct.SignTSVector, ptr %76, i32 0, i32 1
  %78 = load i32, ptr %77, align 4
  %79 = and i32 %78, 4
  %80 = icmp ne i32 %79, 0
  br i1 %80, label %81, label %82

81:                                               ; preds = %75
  br label %84

82:                                               ; preds = %75
  %83 = load i32, ptr %5, align 4
  br label %84

84:                                               ; preds = %82, %81
  %85 = phi i32 [ 0, %81 ], [ %83, %82 ]
  %86 = sext i32 %85 to i64
  br label %87

87:                                               ; preds = %84, %71
  %88 = phi i64 [ %74, %71 ], [ %86, %84 ]
  %89 = add i64 8, %88
  %90 = trunc i64 %89 to i32
  %91 = shl i32 %90, 2
  %92 = load ptr, ptr %6, align 8
  %93 = getelementptr inbounds nuw %struct.anon, ptr %92, i32 0, i32 0
  store i32 %91, ptr %93, align 4
  br label %98

94:                                               ; preds = %48
  br label %95

95:                                               ; preds = %94
  %96 = load i32, ptr %8, align 4
  %97 = add i32 %96, 1
  store i32 %97, ptr %8, align 4
  br label %42, !llvm.loop !14

98:                                               ; preds = %87, %42
  %99 = load ptr, ptr %6, align 8
  %100 = getelementptr inbounds nuw %struct.anon, ptr %99, i32 0, i32 0
  %101 = load i32, ptr %100, align 4
  %102 = lshr i32 %101, 2
  %103 = and i32 %102, 1073741823
  %104 = load ptr, ptr %4, align 8
  store i32 %103, ptr %104, align 4
  %105 = load ptr, ptr %6, align 8
  %106 = call i64 @PointerGetDatum(ptr noundef %105)
  call void @llvm.lifetime.end.p0(i64 4, ptr %8) #9
  call void @llvm.lifetime.end.p0(i64 8, ptr %7) #9
  call void @llvm.lifetime.end.p0(i64 8, ptr %6) #9
  call void @llvm.lifetime.end.p0(i64 4, ptr %5) #9
  call void @llvm.lifetime.end.p0(i64 8, ptr %4) #9
  call void @llvm.lifetime.end.p0(i64 8, ptr %3) #9
  ret i64 %106
}