; Function Attrs: nounwind uwtable
define dso_local noundef i64 @gtsvector_union(ptr noundef readonly captures(none) %0) local_unnamed_addr #4 {
  %2 = getelementptr inbounds nuw i8, ptr %0, i64 32
  %3 = load i64, ptr %2, align 8
  %4 = inttoptr i64 %3 to ptr
  %5 = getelementptr inbounds nuw i8, ptr %0, i64 48
  %6 = load i64, ptr %5, align 8
  %7 = load ptr, ptr %0, align 8
  %8 = tail call zeroext i1 @has_fn_opclass_options(ptr noundef %7) #13
  br i1 %8, label %9, label %15

9:                                                ; preds = %1
  %10 = load ptr, ptr %0, align 8
  %11 = tail call ptr @get_fn_opclass_options(ptr noundef %10) #13
  %12 = getelementptr inbounds nuw i8, ptr %11, i64 4
  %13 = load i32, ptr %12, align 4
  %14 = freeze i32 %13
  br label %15

15:                                               ; preds = %1, %9
  %.fr29 = phi i32 [ %14, %9 ], [ 124, %1 ]
  %16 = add i32 %.fr29, 8
  %17 = sext i32 %16 to i64
  %18 = tail call ptr @palloc(i64 noundef %17) #13
  %19 = shl i32 %16, 2
  store i32 %19, ptr %18, align 4
  %20 = getelementptr inbounds nuw i8, ptr %18, i64 4
  store i32 2, ptr %20, align 4
  %21 = getelementptr inbounds nuw i8, ptr %18, i64 8
  %22 = sext i32 %.fr29 to i64
  tail call void @llvm.memset.p0.i64(ptr nonnull align 1 %21, i8 0, i64 %22, i1 false)
  %23 = load i32, ptr %4, align 8
  %24 = icmp sgt i32 %23, 0
  br i1 %24, label %.lr.ph, label %.loopexit27

.lr.ph:                                           ; preds = %15
  %25 = getelementptr inbounds nuw i8, ptr %4, i64 8
  %26 = icmp sgt i32 %.fr29, 0
  %wide.trip.count.i = zext nneg i32 %.fr29 to i64
  %27 = shl i32 %.fr29, 3
  br i1 %26, label %.lr.ph.split.us, label %.lr.ph.split

.lr.ph.split.us:                                  ; preds = %.lr.ph, %.loopexit.us
  %indvars.iv34 = phi i64 [ %indvars.iv.next35, %.loopexit.us ], [ 0, %.lr.ph ]
  %28 = getelementptr inbounds nuw [0 x %struct.GISTENTRY], ptr %25, i64 0, i64 %indvars.iv34
  %29 = load i64, ptr %28, align 8
  %30 = inttoptr i64 %29 to ptr
  %31 = getelementptr inbounds nuw i8, ptr %30, i64 4
  %32 = load i32, ptr %31, align 4
  %33 = and i32 %32, 2
  %.not.i.us = icmp eq i32 %33, 0
  %34 = getelementptr inbounds nuw i8, ptr %30, i64 8
  br i1 %.not.i.us, label %42, label %35

35:                                               ; preds = %.lr.ph.split.us
  %36 = and i32 %32, 4
  %.not25.i.us = icmp eq i32 %36, 0
  br i1 %.not25.i.us, label %.lr.ph.i.us, label %unionkey.exit

.lr.ph.i.us:                                      ; preds = %35, %.lr.ph.i.us
  %indvars.iv.i.us = phi i64 [ %indvars.iv.next.i.us, %.lr.ph.i.us ], [ 0, %35 ]
  %37 = getelementptr inbounds nuw i8, ptr %34, i64 %indvars.iv.i.us
  %38 = load i8, ptr %37, align 1
  %39 = getelementptr inbounds nuw i8, ptr %21, i64 %indvars.iv.i.us
  %40 = load i8, ptr %39, align 1
  %41 = or i8 %40, %38
  store i8 %41, ptr %39, align 1
  %indvars.iv.next.i.us = add nuw nsw i64 %indvars.iv.i.us, 1
  %exitcond.not.i.us = icmp eq i64 %indvars.iv.next.i.us, %wide.trip.count.i
  br i1 %exitcond.not.i.us, label %.loopexit.us, label %.lr.ph.i.us, !llvm.loop !14

42:                                               ; preds = %.lr.ph.split.us
  %43 = load i32, ptr %30, align 4
  %44 = and i32 %43, -16
  %.not30.i.us = icmp eq i32 %44, 32
  br i1 %.not30.i.us, label %.loopexit.us, label %.lr.ph29.i.us

.lr.ph29.i.us:                                    ; preds = %42, %.lr.ph29.i.us
  %45 = phi i64 [ %58, %.lr.ph29.i.us ], [ 0, %42 ]
  %.12428.i.us = phi i32 [ %57, %.lr.ph29.i.us ], [ 0, %42 ]
  %46 = getelementptr inbounds nuw i32, ptr %34, i64 %45
  %47 = load i32, ptr %46, align 4
  %48 = urem i32 %47, %27
  %49 = and i32 %48, 7
  %50 = shl nuw nsw i32 1, %49
  %51 = lshr i32 %48, 3
  %52 = zext nneg i32 %51 to i64
  %53 = getelementptr inbounds nuw i8, ptr %21, i64 %52
  %54 = load i8, ptr %53, align 1
  %55 = trunc nuw i32 %50 to i8
  %56 = or i8 %54, %55
  store i8 %56, ptr %53, align 1
  %57 = add i32 %.12428.i.us, 1
  %58 = sext i32 %57 to i64
  %59 = load i32, ptr %30, align 4
  %60 = lshr i32 %59, 2
  %61 = zext nneg i32 %60 to i64
  %62 = add nsw i64 %61, -8
  %63 = lshr i64 %62, 2
  %64 = icmp ugt i64 %63, %58
  br i1 %64, label %.lr.ph29.i.us, label %.loopexit.us, !llvm.loop !15

.loopexit.us:                                     ; preds = %.lr.ph.i.us, %.lr.ph29.i.us, %42
  %indvars.iv.next35 = add nuw nsw i64 %indvars.iv34, 1
  %65 = load i32, ptr %4, align 8
  %66 = sext i32 %65 to i64
  %67 = icmp slt i64 %indvars.iv.next35, %66
  br i1 %67, label %.lr.ph.split.us, label %.loopexit27, !llvm.loop !16

.lr.ph.split:                                     ; preds = %.lr.ph, %.preheader.i
  %68 = phi i32 [ %101, %.preheader.i ], [ %23, %.lr.ph ]
  %indvars.iv = phi i64 [ %indvars.iv.next, %.preheader.i ], [ 0, %.lr.ph ]
  %69 = getelementptr inbounds nuw [0 x %struct.GISTENTRY], ptr %25, i64 0, i64 %indvars.iv
  %70 = load i64, ptr %69, align 8
  %71 = inttoptr i64 %70 to ptr
  %72 = getelementptr inbounds nuw i8, ptr %71, i64 4
  %73 = load i32, ptr %72, align 4
  %74 = and i32 %73, 2
  %.not.i = icmp eq i32 %74, 0
  %75 = getelementptr inbounds nuw i8, ptr %71, i64 8
  br i1 %.not.i, label %78, label %76

76:                                               ; preds = %.lr.ph.split
  %77 = and i32 %73, 4
  %.not25.i = icmp eq i32 %77, 0
  br i1 %.not25.i, label %.preheader.i, label %unionkey.exit

78:                                               ; preds = %.lr.ph.split
  %79 = load i32, ptr %71, align 4
  %80 = and i32 %79, -16
  %.not30.i = icmp eq i32 %80, 32
  br i1 %.not30.i, label %.preheader.i, label %.lr.ph29.i

.lr.ph29.i:                                       ; preds = %78, %.lr.ph29.i
  %81 = phi i64 [ %94, %.lr.ph29.i ], [ 0, %78 ]
  %.12428.i = phi i32 [ %93, %.lr.ph29.i ], [ 0, %78 ]
  %82 = getelementptr inbounds nuw i32, ptr %75, i64 %81
  %83 = load i32, ptr %82, align 4
  %84 = urem i32 %83, %27
  %85 = and i32 %84, 7
  %86 = shl nuw nsw i32 1, %85
  %87 = lshr i32 %84, 3
  %88 = zext nneg i32 %87 to i64
  %89 = getelementptr inbounds nuw i8, ptr %21, i64 %88
  %90 = load i8, ptr %89, align 1
  %91 = trunc nuw i32 %86 to i8
  %92 = or i8 %90, %91
  store i8 %92, ptr %89, align 1
  %93 = add i32 %.12428.i, 1
  %94 = sext i32 %93 to i64
  %95 = load i32, ptr %71, align 4
  %96 = lshr i32 %95, 2
  %97 = zext nneg i32 %96 to i64
  %98 = add nsw i64 %97, -8
  %99 = lshr i64 %98, 2
  %100 = icmp ugt i64 %99, %94
  br i1 %100, label %.lr.ph29.i, label %.preheader.i.loopexit, !llvm.loop !15

unionkey.exit:                                    ; preds = %76, %35
  store i32 6, ptr %20, align 4
  store i32 32, ptr %18, align 4
  br label %.loopexit27

.preheader.i.loopexit:                            ; preds = %.lr.ph29.i
  %.pre = load i32, ptr %4, align 8
  br label %.preheader.i

.preheader.i:                                     ; preds = %.preheader.i.loopexit, %76, %78
  %101 = phi i32 [ %.pre, %.preheader.i.loopexit ], [ %68, %76 ], [ %68, %78 ]
  %indvars.iv.next = add nuw nsw i64 %indvars.iv, 1
  %102 = sext i32 %101 to i64
  %103 = icmp slt i64 %indvars.iv.next, %102
  br i1 %103, label %.lr.ph.split, label %.loopexit27, !llvm.loop !16

.loopexit27:                                      ; preds = %.preheader.i, %.loopexit.us, %15, %unionkey.exit
  %104 = phi i32 [ %19, %15 ], [ 32, %unionkey.exit ], [ %19, %.loopexit.us ], [ %19, %.preheader.i ]
  %105 = inttoptr i64 %6 to ptr
  %106 = lshr exact i32 %104, 2
  store i32 %106, ptr %105, align 4
  %107 = ptrtoint ptr %18 to i64
  ret i64 %107
}